target datalayout = "e-m:e-p270:32:32-p271:32:32-p272:64:64-i64:64-i128:128-f80:128-n8:16:32:64-S128"
target triple = "x86_64-pc-linux-gnu"

%struct.AVCodecContext = type { ptr, i32, i32, ptr, i32, i32, ptr, ptr, ptr, i64, i32, i32, ptr, i32, %struct.AVRational, %struct.AVRational, %struct.AVRational, i32, i32, i32, i32, i32, %struct.AVRational, i32, i32, i32, i32, i32, i32, i32, i32, i32, i32, i32, ptr, ptr, i32, float, float, float, float, float, float, float, float, float, i32, i32, i32, i32, i32, i32, i32, i32, i32, i32, i32, i32, ptr, ptr, ptr, i32, i32, i32, i32, i32, i32, i32, i32, i32, i32, %struct.AVChannelLayout, i32, i32, i32, i32, i32, i32, i32, i32, ptr, i32, i32, i32, float, float, i32, i32, i32, i32, i32, ptr, i64, i64, float, float, i32, i32, ptr, ptr, i32, i32, i32, i32, i32, ptr, ptr, ptr, ptr, i32, i32, [8 x i64], i32, i32, i32, i32, i32, i32, i32, ptr, ptr, i32, i32, i32, i32, i32, i32, i32, i32, i32, i32, ptr, ptr, i32, i32, ptr, ptr, ptr, ptr, i32, i32, i64, i32, i32, i64, ptr, i64, ptr, i32, ptr, i32 }
%struct.AVRational = type { i32, i32 }
%struct.AVChannelLayout = type { i32, i32, %union.anon.0, ptr }
%union.anon.0 = type { i64 }
%struct.GDVContext = type { ptr, %struct.GetByteContext, %struct.GetByteContext, %struct.PutByteContext, [256 x i32], ptr, i32, i32, i32 }
%struct.GetByteContext = type { ptr, ptr, ptr }
%struct.PutByteContext = type { ptr, ptr, ptr, i32 }

; Function Attrs: cold nounwind optsize uwtable
define internal i32 @gdv_decode_init(ptr noundef %0) #0 {
  %2 = alloca i32, align 4
  %3 = alloca ptr, align 8
  %4 = alloca ptr, align 8
  %5 = alloca i32, align 4
  %6 = alloca i32, align 4
  %7 = alloca i32, align 4
  %8 = alloca i32, align 4
  store ptr %0, ptr %3, align 8, !tbaa !4
  call void @llvm.lifetime.start.p0(i64 8, ptr %4) #9
  %9 = load ptr, ptr %3, align 8, !tbaa !4
  %10 = getelementptr inbounds nuw %struct.AVCodecContext, ptr %9, i32 0, i32 6
  %11 = load ptr, ptr %10, align 8, !tbaa !9
  store ptr %11, ptr %4, align 8, !tbaa !29
  call void @llvm.lifetime.start.p0(i64 4, ptr %5) #9
  call void @llvm.lifetime.start.p0(i64 4, ptr %6) #9
  call void @llvm.lifetime.start.p0(i64 4, ptr %7) #9
  %12 = load ptr, ptr %3, align 8, !tbaa !4
  %13 = getelementptr inbounds nuw %struct.AVCodecContext, ptr %12, i32 0, i32 23
  store i32 11, ptr %13, align 8, !tbaa !31
  %14 = load ptr, ptr %3, align 8, !tbaa !4
  %15 = getelementptr inbounds nuw %struct.AVCodecContext, ptr %14, i32 0, i32 18
  %16 = load i32, ptr %15, align 8, !tbaa !32
  %17 = load ptr, ptr %3, align 8, !tbaa !4
  %18 = getelementptr inbounds nuw %struct.AVCodecContext, ptr %17, i32 0, i32 19
  %19 = load i32, ptr %18, align 4, !tbaa !33
  %20 = mul nsw i32 %16, %19
  %21 = add nsw i32 %20, 4096
  %22 = load ptr, ptr %4, align 8, !tbaa !29
  %23 = getelementptr inbounds nuw %struct.GDVContext, ptr %22, i32 0, i32 6
  store i32 %21, ptr %23, align 8, !tbaa !34
  %24 = load ptr, ptr %4, align 8, !tbaa !29
  %25 = getelementptr inbounds nuw %struct.GDVContext, ptr %24, i32 0, i32 6
  %26 = load i32, ptr %25, align 8, !tbaa !34
  %27 = zext i32 %26 to i64
  %28 = call noalias ptr @av_calloc(i64 noundef %27, i64 noundef 1)
  %29 = load ptr, ptr %4, align 8, !tbaa !29
  %30 = getelementptr inbounds nuw %struct.GDVContext, ptr %29, i32 0, i32 5
  store ptr %28, ptr %30, align 8, !tbaa !38
  %31 = load ptr, ptr %4, align 8, !tbaa !29
  %32 = getelementptr inbounds nuw %struct.GDVContext, ptr %31, i32 0, i32 5
  %33 = load ptr, ptr %32, align 8, !tbaa !38
  %34 = icmp ne ptr %33, null
  br i1 %34, label %36, label %35

35:                                               ; preds = %1
  store i32 -12, ptr %2, align 4
  store i32 1, ptr %8, align 4
  br label %75

36:                                               ; preds = %1
  store i32 0, ptr %5, align 4, !tbaa !39
  br label %37

37:                                               ; preds = %71, %36
  %38 = load i32, ptr %5, align 4, !tbaa !39
  %39 = icmp slt i32 %38, 2
  br i1 %39, label %40, label %74

40:                                               ; preds = %37
  store i32 0, ptr %6, align 4, !tbaa !39
  br label %41

41:                                               ; preds = %67, %40
  %42 = load i32, ptr %6, align 4, !tbaa !39
  %43 = icmp slt i32 %42, 256
  br i1 %43, label %44, label %70

44:                                               ; preds = %41
  store i32 0, ptr %7, align 4, !tbaa !39
  br label %45

45:                                               ; preds = %63, %44
  %46 = load i32, ptr %7, align 4, !tbaa !39
  %47 = icmp slt i32 %46, 8
  br i1 %47, label %48, label %66

48:                                               ; preds = %45
  %49 = load i32, ptr %6, align 4, !tbaa !39
  %50 = trunc i32 %49 to i8
  %51 = load ptr, ptr %4, align 8, !tbaa !29
  %52 = getelementptr inbounds nuw %struct.GDVContext, ptr %51, i32 0, i32 5
  %53 = load ptr, ptr %52, align 8, !tbaa !38
  %54 = load i32, ptr %5, align 4, !tbaa !39
  %55 = mul nsw i32 %54, 2048
  %56 = load i32, ptr %6, align 4, !tbaa !39
  %57 = mul nsw i32 %56, 8
  %58 = add nsw i32 %55, %57
  %59 = load i32, ptr %7, align 4, !tbaa !39
  %60 = add nsw i32 %58, %59
  %61 = sext i32 %60 to i64
  %62 = getelementptr inbounds i8, ptr %53, i64 %61
  store i8 %50, ptr %62, align 1, !tbaa !40
  br label %63

63:                                               ; preds = %48
  %64 = load i32, ptr %7, align 4, !tbaa !39
  %65 = add nsw i32 %64, 1
  store i32 %65, ptr %7, align 4, !tbaa !39
  br label %45, !llvm.loop !41

66:                                               ; preds = %45
  br label %67

67:                                               ; preds = %66
  %68 = load i32, ptr %6, align 4, !tbaa !39
  %69 = add nsw i32 %68, 1
  store i32 %69, ptr %6, align 4, !tbaa !39
  br label %41, !llvm.loop !43

70:                                               ; preds = %41
  br label %71

71:                                               ; preds = %70
  %72 = load i32, ptr %5, align 4, !tbaa !39
  %73 = add nsw i32 %72, 1
  store i32 %73, ptr %5, align 4, !tbaa !39
  br label %37, !llvm.loop !44

74:                                               ; preds = %37
  store i32 0, ptr %2, align 4
  store i32 1, ptr %8, align 4
  br label %75

75:                                               ; preds = %74, %35
  call void @llvm.lifetime.end.p0(i64 4, ptr %7) #9
  call void @llvm.lifetime.end.p0(i64 4, ptr %6) #9
  call void @llvm.lifetime.end.p0(i64 4, ptr %5) #9
  call void @llvm.lifetime.end.p0(i64 8, ptr %4) #9
  %76 = load i32, ptr %2, align 4
  ret i32 %76
}