; Function Attrs: cold nounwind optsize uwtable
define internal range(i32 -12, 1) i32 @gdv_decode_init(ptr noundef captures(none) initializes((136, 140)) %0) #0 {
  %2 = getelementptr inbounds nuw i8, ptr %0, i64 32
  %3 = load ptr, ptr %2, align 8, !tbaa !4
  %4 = getelementptr inbounds nuw i8, ptr %0, i64 136
  store i32 11, ptr %4, align 8, !tbaa !27
  %5 = getelementptr inbounds nuw i8, ptr %0, i64 112
  %6 = load i32, ptr %5, align 8, !tbaa !28
  %7 = getelementptr inbounds nuw i8, ptr %0, i64 116
  %8 = load i32, ptr %7, align 4, !tbaa !29
  %9 = mul nsw i32 %8, %6
  %10 = add nsw i32 %9, 4096
  %11 = getelementptr inbounds nuw i8, ptr %3, i64 1120
  store i32 %10, ptr %11, align 8, !tbaa !30
  %12 = zext i32 %10 to i64
  %13 = tail call noalias ptr @av_calloc(i64 noundef %12, i64 noundef 1) #8
  %14 = getelementptr inbounds nuw i8, ptr %3, i64 1112
  store ptr %13, ptr %14, align 8, !tbaa !35
  %.not = icmp eq ptr %13, null
  br i1 %.not, label %.loopexit, label %.preheader22

.preheader22:                                     ; preds = %1, %24
  %15 = phi i1 [ false, %24 ], [ true, %1 ]
  %indvars.iv32 = phi i64 [ 2048, %24 ], [ 0, %1 ]
  br label %.preheader

.preheader:                                       ; preds = %.preheader22, %23
  %indvars.iv28 = phi i64 [ 0, %.preheader22 ], [ %indvars.iv.next29, %23 ]
  %16 = trunc i64 %indvars.iv28 to i8
  %17 = shl nuw nsw i64 %indvars.iv28, 3
  br label %18

18:                                               ; preds = %.preheader, %18
  %indvars.iv = phi i64 [ 0, %.preheader ], [ %indvars.iv.next, %18 ]
  %19 = load ptr, ptr %14, align 8, !tbaa !35
  %20 = getelementptr inbounds nuw i8, ptr %19, i64 %indvars.iv
  %21 = getelementptr inbounds nuw i8, ptr %20, i64 %17
  %22 = getelementptr inbounds nuw i8, ptr %21, i64 %indvars.iv32
  store i8 %16, ptr %22, align 1, !tbaa !36
  %indvars.iv.next = add nuw nsw i64 %indvars.iv, 1
  %exitcond.not = icmp eq i64 %indvars.iv.next, 8
  br i1 %exitcond.not, label %23, label %18, !llvm.loop !37

23:                                               ; preds = %18
  %indvars.iv.next29 = add nuw nsw i64 %indvars.iv28, 1
  %exitcond31.not = icmp eq i64 %indvars.iv.next29, 256
  br i1 %exitcond31.not, label %24, label %.preheader, !llvm.loop !39

24:                                               ; preds = %23
  br i1 %15, label %.preheader22, label %.loopexit, !llvm.loop !40

.loopexit:                                        ; preds = %24, %1
  %.021 = phi i32 [ -12, %1 ], [ 0, %24 ]
  ret i32 %.021
}